; Function Attrs: nounwind uwtable
define internal fastcc range(i32 -12, 1) i32 @rv34_decoder_realloc(ptr noundef %0) unnamed_addr #4 {
  %2 = getelementptr inbounds nuw i8, ptr %0, i64 5992
  tail call void @av_freep(ptr noundef nonnull %2) #15
  %3 = getelementptr inbounds nuw i8, ptr %0, i64 6000
  store ptr null, ptr %3, align 8, !tbaa !75
  %4 = getelementptr inbounds nuw i8, ptr %0, i64 6768
  tail call void @av_freep(ptr noundef nonnull %4) #15
  %5 = getelementptr inbounds nuw i8, ptr %0, i64 6544
  tail call void @av_freep(ptr noundef nonnull %5) #15
  %6 = getelementptr inbounds nuw i8, ptr %0, i64 6648
  tail call void @av_freep(ptr noundef nonnull %6) #15
  %7 = getelementptr inbounds nuw i8, ptr %0, i64 6656
  tail call void @av_freep(ptr noundef nonnull %7) #15
  %8 = getelementptr inbounds nuw i8, ptr %0, i64 6664
  tail call void @av_freep(ptr noundef nonnull %8) #15
  %9 = tail call fastcc i32 @rv34_decoder_alloc(ptr noundef %0)
  ret i32 %9
}